target datalayout = "e-m:e-p270:32:32-p271:32:32-p272:64:64-i64:64-i128:128-f80:128-n8:16:32:64-S128"
target triple = "x86_64-pc-linux-gnu"

%"class.llvm::SmallVectorBase" = type { ptr, i32, i32 }
%"class.llvm::RegisterClassInfo" = type { %"class.std::unique_ptr", i32, ptr, ptr, %"class.llvm::SmallVector.57", %"class.llvm::SmallVector.63", %"class.llvm::BitVector", %"class.llvm::BitVector", %"class.std::unique_ptr.70", %"class.llvm::ArrayRef" }
%"class.std::unique_ptr" = type { %"struct.std::__uniq_ptr_data" }
%"struct.std::__uniq_ptr_data" = type { %"class.std::__uniq_ptr_impl" }
%"class.std::__uniq_ptr_impl" = type { %"class.std::tuple" }
%"class.std::tuple" = type { %"struct.std::_Tuple_impl" }
%"struct.std::_Tuple_impl" = type { %"struct.std::_Head_base.56" }
%"struct.std::_Head_base.56" = type { ptr }
%"class.llvm::SmallVector.57" = type { %"class.llvm::SmallVectorImpl.58", %"struct.llvm::SmallVectorStorage.62" }
%"class.llvm::SmallVectorImpl.58" = type { %"class.llvm::SmallVectorTemplateBase.59" }
%"class.llvm::SmallVectorTemplateBase.59" = type { %"class.llvm::SmallVectorTemplateCommon.60" }
%"class.llvm::SmallVectorTemplateCommon.60" = type { %"class.llvm::SmallVectorBase.61" }
%"class.llvm::SmallVectorBase.61" = type { ptr, i64, i64 }
%"struct.llvm::SmallVectorStorage.62" = type { [32 x i8] }
%"class.llvm::SmallVector.63" = type { %"class.llvm::SmallVectorImpl.58", %"struct.llvm::SmallVectorStorage.64" }
%"struct.llvm::SmallVectorStorage.64" = type { [40 x i8] }
%"class.llvm::BitVector" = type <{ %"class.llvm::SmallVector.65", i32, [4 x i8] }>
%"class.llvm::SmallVector.65" = type { %"class.llvm::SmallVectorImpl.66", %"struct.llvm::SmallVectorStorage.69" }
%"class.llvm::SmallVectorImpl.66" = type { %"class.llvm::SmallVectorTemplateBase.67" }
%"class.llvm::SmallVectorTemplateBase.67" = type { %"class.llvm::SmallVectorTemplateCommon.68" }
%"class.llvm::SmallVectorTemplateCommon.68" = type { %"class.llvm::SmallVectorBase" }
%"struct.llvm::SmallVectorStorage.69" = type { [48 x i8] }
%"class.std::unique_ptr.70" = type { %"struct.std::__uniq_ptr_data.71" }
%"struct.std::__uniq_ptr_data.71" = type { %"class.std::__uniq_ptr_impl.72" }
%"class.std::__uniq_ptr_impl.72" = type { %"class.std::tuple.73" }
%"class.std::tuple.73" = type { %"struct.std::_Tuple_impl.74" }
%"struct.std::_Tuple_impl.74" = type { %"struct.std::_Head_base.77" }
%"struct.std::_Head_base.77" = type { ptr }
%"class.llvm::MCRegister" = type { i32 }
%"class.llvm::ArrayRef" = type { ptr, i64 }
%"class.llvm::MCRegUnitIterator" = type <{ %"class.llvm::iterator_adaptor_base", i32, [4 x i8] }>
%"class.llvm::iterator_adaptor_base" = type { %"class.llvm::MCRegisterInfo::DiffListIterator" }
%"class.llvm::MCRegisterInfo::DiffListIterator" = type { i32, ptr }
%"class.llvm::RegAllocEvictionAdvisor" = type <{ ptr, ptr, ptr, ptr, ptr, ptr, ptr, ptr, ptr, %"class.llvm::ArrayRef", i8, [7 x i8] }>
%"class.llvm::MCRegisterInfo" = type { ptr, i32, %"class.llvm::MCRegister", %"class.llvm::MCRegister", ptr, i32, i32, ptr, ptr, ptr, ptr, ptr, ptr, i32, ptr, i32, i32, i32, i32, ptr, ptr, ptr, ptr, %"class.llvm::DenseMap.351", %"class.llvm::DenseMap.351", %"class.std::vector.354" }
%"class.llvm::DenseMap.351" = type <{ ptr, i32, i32, i32, [4 x i8] }>
%"class.std::vector.354" = type { %"struct.std::_Vector_base.355" }
%"struct.std::_Vector_base.355" = type { %"struct.std::_Vector_base<std::vector<unsigned short>, std::allocator<std::vector<unsigned short>>>::_Vector_impl" }
%"struct.std::_Vector_base<std::vector<unsigned short>, std::allocator<std::vector<unsigned short>>>::_Vector_impl" = type { %"struct.std::_Vector_base<std::vector<unsigned short>, std::allocator<std::vector<unsigned short>>>::_Vector_impl_data" }
%"struct.std::_Vector_base<std::vector<unsigned short>, std::allocator<std::vector<unsigned short>>>::_Vector_impl_data" = type { ptr, ptr, ptr }
%"struct.llvm::MCRegisterDesc" = type { i32, i32, i32, i32, i32, i16, i8 }

; Function Attrs: mustprogress nounwind uwtable
define linkonce_odr hidden noundef nonnull align 4 dereferenceable(24) ptr @_ZNK4llvm14MCRegisterInfoixENS_10MCRegisterE(ptr noundef nonnull align 8 dereferenceable(224) %0, i32 %1) #1 comdat align 2 {
  %3 = alloca %"class.llvm::MCRegister", align 4
  %4 = alloca ptr, align 8
  %5 = getelementptr inbounds nuw %"class.llvm::MCRegister", ptr %3, i32 0, i32 0
  store i32 %1, ptr %5, align 4
  store ptr %0, ptr %4, align 8
  %6 = load ptr, ptr %4, align 8
  %7 = getelementptr inbounds nuw %"class.llvm::MCRegisterInfo", ptr %6, i32 0, i32 0
  %8 = load ptr, ptr %7, align 8
  %9 = call noundef i32 @_ZNK4llvm10MCRegistercvjEv(ptr noundef nonnull align 4 dereferenceable(4) %3)
  %10 = zext i32 %9 to i64
  %11 = getelementptr inbounds %"struct.llvm::MCRegisterDesc", ptr %8, i64 %10
  ret ptr %11
}

; Function Attrs: mustprogress nounwind uwtable
define linkonce_odr hidden void @_ZN4llvm14MCRegisterInfo16DiffListIteratorC2Ev(ptr noundef nonnull align 8 dereferenceable(16) %0) unnamed_addr #1 comdat align 2 {
  %2 = alloca ptr, align 8
  store ptr %0, ptr %2, align 8
  %3 = load ptr, ptr %2, align 8
  %4 = getelementptr inbounds nuw %"class.llvm::MCRegisterInfo::DiffListIterator", ptr %3, i32 0, i32 0
  store i32 0, ptr %4, align 8
  %5 = getelementptr inbounds nuw %"class.llvm::MCRegisterInfo::DiffListIterator", ptr %3, i32 0, i32 1
  store ptr null, ptr %5, align 8
  ret void
}

; Function Attrs: mustprogress nounwind uwtable
define linkonce_odr hidden noundef nonnull align 8 dereferenceable(16) ptr @_ZN4llvm14MCRegisterInfo16DiffListIteratorppEv(ptr noundef nonnull align 8 dereferenceable(16) %0) #1 comdat align 2 {
  %2 = alloca ptr, align 8
  %3 = alloca i16, align 2
  store ptr %0, ptr %2, align 8
  %4 = load ptr, ptr %2, align 8
  %5 = getelementptr inbounds nuw %"class.llvm::MCRegisterInfo::DiffListIterator", ptr %4, i32 0, i32 1
  %6 = load ptr, ptr %5, align 8
  %7 = getelementptr inbounds i16, ptr %6, i32 1
  store ptr %7, ptr %5, align 8
  %8 = load i16, ptr %6, align 2
  store i16 %8, ptr %3, align 2
  %9 = load i16, ptr %3, align 2
  %10 = sext i16 %9 to i32
  %11 = getelementptr inbounds nuw %"class.llvm::MCRegisterInfo::DiffListIterator", ptr %4, i32 0, i32 0
  %12 = load i32, ptr %11, align 8
  %13 = add i32 %12, %10
  store i32 %13, ptr %11, align 8
  %14 = load i16, ptr %3, align 2
  %15 = icmp ne i16 %14, 0
  br i1 %15, label %18, label %16

16:                                               ; preds = %1
  %17 = getelementptr inbounds nuw %"class.llvm::MCRegisterInfo::DiffListIterator", ptr %4, i32 0, i32 1
  store ptr null, ptr %17, align 8
  br label %18

18:                                               ; preds = %16, %1
  ret ptr %4
}

; Function Attrs: mustprogress nounwind uwtable
define linkonce_odr hidden noundef ptr @_ZNK4llvm25SmallVectorTemplateCommonItvE5beginEv(ptr noundef nonnull align 8 dereferenceable(24) %0) #1 comdat align 2 {
  %2 = alloca ptr, align 8
  store ptr %0, ptr %2, align 8
  %3 = load ptr, ptr %2, align 8
  %4 = getelementptr inbounds nuw %"class.llvm::SmallVectorBase.61", ptr %3, i32 0, i32 0
  %5 = load ptr, ptr %4, align 8
  ret ptr %5
}

; Function Attrs: mustprogress nounwind uwtable
define linkonce_odr hidden noundef zeroext i1 @_ZNK4llvm14MCRegisterInfo16DiffListIterator7isValidEv(ptr noundef nonnull align 8 dereferenceable(16) %0) #1 comdat align 2 {
  %2 = alloca ptr, align 8
  store ptr %0, ptr %2, align 8
  %3 = load ptr, ptr %2, align 8
  %4 = getelementptr inbounds nuw %"class.llvm::MCRegisterInfo::DiffListIterator", ptr %3, i32 0, i32 1
  %5 = load ptr, ptr %4, align 8
  %6 = icmp ne ptr %5, null
  ret i1 %6
}

; Function Attrs: mustprogress nounwind uwtable
define linkonce_odr hidden noundef nonnull align 4 dereferenceable(4) ptr @_ZNK4llvm14MCRegisterInfo16DiffListIteratordeEv(ptr noundef nonnull align 8 dereferenceable(16) %0) #1 comdat align 2 {
  %2 = alloca ptr, align 8
  store ptr %0, ptr %2, align 8
  %3 = load ptr, ptr %2, align 8
  %4 = getelementptr inbounds nuw %"class.llvm::MCRegisterInfo::DiffListIterator", ptr %3, i32 0, i32 0
  ret ptr %4
}

; Function Attrs: mustprogress nounwind uwtable
define linkonce_odr hidden void @_ZN4llvm14MCRegisterInfo16DiffListIterator4initEjPKs(ptr noundef nonnull align 8 dereferenceable(16) %0, i32 noundef %1, ptr noundef %2) #1 comdat align 2 {
  %4 = alloca ptr, align 8
  %5 = alloca i32, align 4
  %6 = alloca ptr, align 8
  store ptr %0, ptr %4, align 8
  store i32 %1, ptr %5, align 4
  store ptr %2, ptr %6, align 8
  %7 = load ptr, ptr %4, align 8
  %8 = load i32, ptr %5, align 4
  %9 = getelementptr inbounds nuw %"class.llvm::MCRegisterInfo::DiffListIterator", ptr %7, i32 0, i32 0
  store i32 %8, ptr %9, align 8
  %10 = load ptr, ptr %6, align 8
  %11 = getelementptr inbounds nuw %"class.llvm::MCRegisterInfo::DiffListIterator", ptr %7, i32 0, i32 1
  store ptr %10, ptr %11, align 8
  ret void
}

; Function Attrs: mustprogress nounwind uwtable
define linkonce_odr hidden noundef nonnull align 4 dereferenceable(24) ptr @_ZNK4llvm14MCRegisterInfo3getENS_10MCRegisterE(ptr noundef nonnull align 8 dereferenceable(224) %0, i32 %1) #1 comdat align 2 {
  %3 = alloca %"class.llvm::MCRegister", align 4
  %4 = alloca ptr, align 8
  %5 = alloca %"class.llvm::MCRegister", align 4
  %6 = getelementptr inbounds nuw %"class.llvm::MCRegister", ptr %3, i32 0, i32 0
  store i32 %1, ptr %6, align 4
  store ptr %0, ptr %4, align 8
  %7 = load ptr, ptr %4, align 8
  call void @llvm.memcpy.p0.p0.i64(ptr align 4 %5, ptr align 4 %3, i64 4, i1 false)
  %8 = getelementptr inbounds nuw %"class.llvm::MCRegister", ptr %5, i32 0, i32 0
  %9 = load i32, ptr %8, align 4
  %10 = call noundef nonnull align 4 dereferenceable(24) ptr @_ZNK4llvm14MCRegisterInfoixENS_10MCRegisterE(ptr noundef nonnull align 8 dereferenceable(224) %7, i32 %9)
  ret ptr %10
}

; Function Attrs: mustprogress nounwind uwtable
define linkonce_odr hidden void @_ZN4llvm21iterator_adaptor_baseINS_17MCRegUnitIteratorENS_14MCRegisterInfo16DiffListIteratorESt20forward_iterator_tagKjlPS5_RS5_EC2Ev(ptr noundef nonnull align 8 dereferenceable(16) %0) unnamed_addr #1 comdat align 2 {
  %2 = alloca ptr, align 8
  store ptr %0, ptr %2, align 8
  %3 = load ptr, ptr %2, align 8
  %4 = getelementptr inbounds nuw %"class.llvm::iterator_adaptor_base", ptr %3, i32 0, i32 0
  call void @_ZN4llvm14MCRegisterInfo16DiffListIteratorC2Ev(ptr noundef nonnull align 8 dereferenceable(16) %4) #2
  ret void
}

; Function Attrs: mustprogress nounwind uwtable
define linkonce_odr hidden noundef nonnull align 8 dereferenceable(20) ptr @_ZN4llvm17MCRegUnitIteratorppEv(ptr noundef nonnull align 8 dereferenceable(20) %0) #1 comdat align 2 {
  %2 = alloca ptr, align 8
  store ptr %0, ptr %2, align 8
  %3 = load ptr, ptr %2, align 8
  %4 = getelementptr inbounds nuw %"class.llvm::iterator_adaptor_base", ptr %3, i32 0, i32 0
  %5 = call noundef nonnull align 8 dereferenceable(16) ptr @_ZN4llvm14MCRegisterInfo16DiffListIteratorppEv(ptr noundef nonnull align 8 dereferenceable(16) %4)
  %6 = call noundef nonnull align 4 dereferenceable(4) ptr @_ZNK4llvm14MCRegisterInfo16DiffListIteratordeEv(ptr noundef nonnull align 8 dereferenceable(16) %5)
  %7 = load i32, ptr %6, align 4
  %8 = getelementptr inbounds nuw %"class.llvm::MCRegUnitIterator", ptr %3, i32 0, i32 1
  store i32 %7, ptr %8, align 8
  ret ptr %3
}

; Function Attrs: mustprogress nounwind uwtable
define linkonce_odr hidden noundef nonnull align 2 dereferenceable(2) ptr @_ZNK4llvm25SmallVectorTemplateCommonItvEixEm(ptr noundef nonnull align 8 dereferenceable(24) %0, i64 noundef %1) #1 comdat align 2 {
  %3 = alloca ptr, align 8
  %4 = alloca i64, align 8
  store ptr %0, ptr %3, align 8
  store i64 %1, ptr %4, align 8
  %5 = load ptr, ptr %3, align 8
  %6 = call noundef ptr @_ZNK4llvm25SmallVectorTemplateCommonItvE5beginEv(ptr noundef nonnull align 8 dereferenceable(24) %5)
  %7 = load i64, ptr %4, align 8
  %8 = getelementptr inbounds i16, ptr %6, i64 %7
  ret ptr %8
}

; Function Attrs: mustprogress nounwind uwtable
define linkonce_odr hidden noundef nonnull align 4 dereferenceable(4) ptr @_ZNK4llvm17MCRegUnitIteratordeEv(ptr noundef nonnull align 8 dereferenceable(20) %0) #1 comdat align 2 {
  %2 = alloca ptr, align 8
  store ptr %0, ptr %2, align 8
  %3 = load ptr, ptr %2, align 8
  %4 = getelementptr inbounds nuw %"class.llvm::MCRegUnitIterator", ptr %3, i32 0, i32 1
  ret ptr %4
}

; Function Attrs: mustprogress nounwind uwtable
define linkonce_odr hidden noundef zeroext i1 @_ZNK4llvm17MCRegUnitIterator7isValidEv(ptr noundef nonnull align 8 dereferenceable(20) %0) #1 comdat align 2 {
  %2 = alloca ptr, align 8
  store ptr %0, ptr %2, align 8
  %3 = load ptr, ptr %2, align 8
  %4 = getelementptr inbounds nuw %"class.llvm::iterator_adaptor_base", ptr %3, i32 0, i32 0
  %5 = call noundef zeroext i1 @_ZNK4llvm14MCRegisterInfo16DiffListIterator7isValidEv(ptr noundef nonnull align 8 dereferenceable(16) %4)
  ret i1 %5
}

; Function Attrs: mustprogress nounwind uwtable
define linkonce_odr hidden void @_ZN4llvm17MCRegUnitIteratorC2ENS_10MCRegisterEPKNS_14MCRegisterInfoE(ptr noundef nonnull align 8 dereferenceable(20) %0, i32 %1, ptr noundef %2) unnamed_addr #1 comdat align 2 {
  %4 = alloca %"class.llvm::MCRegister", align 4
  %5 = alloca ptr, align 8
  %6 = alloca ptr, align 8
  %7 = alloca i32, align 4
  %8 = alloca %"class.llvm::MCRegister", align 4
  %9 = alloca i32, align 4
  %10 = alloca i32, align 4
  %11 = getelementptr inbounds nuw %"class.llvm::MCRegister", ptr %4, i32 0, i32 0
  store i32 %1, ptr %11, align 4
  store ptr %0, ptr %5, align 8
  store ptr %2, ptr %6, align 8
  %12 = load ptr, ptr %5, align 8
  call void @_ZN4llvm21iterator_adaptor_baseINS_17MCRegUnitIteratorENS_14MCRegisterInfo16DiffListIteratorESt20forward_iterator_tagKjlPS5_RS5_EC2Ev(ptr noundef nonnull align 8 dereferenceable(16) %12) #2
  %13 = load ptr, ptr %6, align 8
  call void @llvm.memcpy.p0.p0.i64(ptr align 4 %8, ptr align 4 %4, i64 4, i1 false)
  %14 = getelementptr inbounds nuw %"class.llvm::MCRegister", ptr %8, i32 0, i32 0
  %15 = load i32, ptr %14, align 4
  %16 = call noundef nonnull align 4 dereferenceable(24) ptr @_ZNK4llvm14MCRegisterInfo3getENS_10MCRegisterE(ptr noundef nonnull align 8 dereferenceable(224) %13, i32 %15)
  %17 = getelementptr inbounds nuw %"struct.llvm::MCRegisterDesc", ptr %16, i32 0, i32 4
  %18 = load i32, ptr %17, align 4
  store i32 %18, ptr %7, align 4
  %19 = load i32, ptr %7, align 4
  %20 = and i32 %19, 4095
  store i32 %20, ptr %9, align 4
  %21 = load i32, ptr %7, align 4
  %22 = lshr i32 %21, 12
  store i32 %22, ptr %10, align 4
  %23 = getelementptr inbounds nuw %"class.llvm::iterator_adaptor_base", ptr %12, i32 0, i32 0
  %24 = load i32, ptr %9, align 4
  %25 = load ptr, ptr %6, align 8
  %26 = getelementptr inbounds nuw %"class.llvm::MCRegisterInfo", ptr %25, i32 0, i32 8
  %27 = load ptr, ptr %26, align 8
  %28 = load i32, ptr %10, align 4
  %29 = zext i32 %28 to i64
  %30 = getelementptr inbounds i16, ptr %27, i64 %29
  call void @_ZN4llvm14MCRegisterInfo16DiffListIterator4initEjPKs(ptr noundef nonnull align 8 dereferenceable(16) %23, i32 noundef %24, ptr noundef %30)
  %31 = getelementptr inbounds nuw %"class.llvm::iterator_adaptor_base", ptr %12, i32 0, i32 0
  %32 = call noundef nonnull align 4 dereferenceable(4) ptr @_ZNK4llvm14MCRegisterInfo16DiffListIteratordeEv(ptr noundef nonnull align 8 dereferenceable(16) %31)
  %33 = load i32, ptr %32, align 4
  %34 = getelementptr inbounds nuw %"class.llvm::MCRegUnitIterator", ptr %12, i32 0, i32 1
  store i32 %33, ptr %34, align 8
  ret void
}

; Function Attrs: mustprogress nounwind uwtable
define linkonce_odr hidden void @_ZN4llvm10MCRegisterC2Ej(ptr noundef nonnull align 4 dereferenceable(4) %0, i32 noundef %1) unnamed_addr #1 comdat align 2 {
  %3 = alloca ptr, align 8
  %4 = alloca i32, align 4
  store ptr %0, ptr %3, align 8
  store i32 %1, ptr %4, align 4
  %5 = load ptr, ptr %3, align 8
  %6 = getelementptr inbounds nuw %"class.llvm::MCRegister", ptr %5, i32 0, i32 0
  %7 = load i32, ptr %4, align 4
  store i32 %7, ptr %6, align 4
  ret void
}

; Function Attrs: mustprogress nounwind uwtable
define linkonce_odr hidden noundef i32 @_ZNK4llvm10MCRegistercvjEv(ptr noundef nonnull align 4 dereferenceable(4) %0) #1 comdat align 2 {
  %2 = alloca ptr, align 8
  store ptr %0, ptr %2, align 8
  %3 = load ptr, ptr %2, align 8
  %4 = getelementptr inbounds nuw %"class.llvm::MCRegister", ptr %3, i32 0, i32 0
  %5 = load i32, ptr %4, align 4
  ret i32 %5
}

; Function Attrs: mustprogress nounwind uwtable
define linkonce_odr hidden i32 @_ZNK4llvm17RegisterClassInfo23getLastCalleeSavedAliasENS_10MCRegisterE(ptr noundef nonnull align 8 dereferenceable(320) %0, i32 %1) #1 comdat align 2 {
  %3 = alloca %"class.llvm::MCRegister", align 4
  %4 = alloca %"class.llvm::MCRegister", align 4
  %5 = alloca ptr, align 8
  %6 = alloca %"class.llvm::MCRegUnitIterator", align 8
  %7 = alloca %"class.llvm::MCRegister", align 4
  %8 = alloca %"class.llvm::MCRegister", align 4
  %9 = getelementptr inbounds nuw %"class.llvm::MCRegister", ptr %4, i32 0, i32 0
  store i32 %1, ptr %9, align 4
  store ptr %0, ptr %5, align 8
  %10 = load ptr, ptr %5, align 8
  call void @_ZN4llvm10MCRegisterC2Ej(ptr noundef nonnull align 4 dereferenceable(4) %3, i32 noundef 0)
  call void @llvm.memcpy.p0.p0.i64(ptr align 4 %7, ptr align 4 %4, i64 4, i1 false)
  %11 = getelementptr inbounds nuw %"class.llvm::RegisterClassInfo", ptr %10, i32 0, i32 3
  %12 = load ptr, ptr %11, align 8
  %13 = icmp eq ptr %12, null
  br i1 %13, label %16, label %14

14:                                               ; preds = %2
  %15 = getelementptr inbounds i8, ptr %12, i64 8
  br label %16

16:                                               ; preds = %14, %2
  %17 = phi ptr [ %15, %14 ], [ null, %2 ]
  %18 = getelementptr inbounds nuw %"class.llvm::MCRegister", ptr %7, i32 0, i32 0
  %19 = load i32, ptr %18, align 4
  call void @_ZN4llvm17MCRegUnitIteratorC2ENS_10MCRegisterEPKNS_14MCRegisterInfoE(ptr noundef nonnull align 8 dereferenceable(20) %6, i32 %19, ptr noundef %17)
  br label %20

20:                                               ; preds = %34, %16
  %21 = call noundef zeroext i1 @_ZNK4llvm17MCRegUnitIterator7isValidEv(ptr noundef nonnull align 8 dereferenceable(20) %6)
  br i1 %21, label %22, label %36

22:                                               ; preds = %20
  %23 = getelementptr inbounds nuw %"class.llvm::RegisterClassInfo", ptr %10, i32 0, i32 5
  %24 = call noundef nonnull align 4 dereferenceable(4) ptr @_ZNK4llvm17MCRegUnitIteratordeEv(ptr noundef nonnull align 8 dereferenceable(20) %6)
  %25 = load i32, ptr %24, align 4
  %26 = zext i32 %25 to i64
  %27 = call noundef nonnull align 2 dereferenceable(2) ptr @_ZNK4llvm25SmallVectorTemplateCommonItvEixEm(ptr noundef nonnull align 8 dereferenceable(24) %23, i64 noundef %26)
  %28 = load i16, ptr %27, align 2
  %29 = zext i16 %28 to i32
  call void @_ZN4llvm10MCRegisterC2Ej(ptr noundef nonnull align 4 dereferenceable(4) %8, i32 noundef %29)
  call void @llvm.memcpy.p0.p0.i64(ptr align 4 %3, ptr align 4 %8, i64 4, i1 false)
  %30 = call noundef i32 @_ZNK4llvm10MCRegistercvjEv(ptr noundef nonnull align 4 dereferenceable(4) %3)
  %31 = icmp ne i32 %30, 0
  br i1 %31, label %32, label %33

32:                                               ; preds = %22
  br label %36

33:                                               ; preds = %22
  br label %34

34:                                               ; preds = %33
  %35 = call noundef nonnull align 8 dereferenceable(20) ptr @_ZN4llvm17MCRegUnitIteratorppEv(ptr noundef nonnull align 8 dereferenceable(20) %6)
  br label %20, !llvm.loop !7

36:                                               ; preds = %32, %20
  %37 = getelementptr inbounds nuw %"class.llvm::MCRegister", ptr %3, i32 0, i32 0
  %38 = load i32, ptr %37, align 4
  ret i32 %38
}

; Function Attrs: mustprogress nounwind uwtable
define dso_local noundef zeroext i1 @_ZNK4llvm23RegAllocEvictionAdvisor22isUnusedCalleeSavedRegENS_10MCRegisterE(ptr noundef nonnull align 8 dereferenceable(89) %0, i32 %1) #1 align 2 {
  %3 = alloca i1, align 1
  %4 = alloca %"class.llvm::MCRegister", align 4
  %5 = alloca ptr, align 8
  %6 = alloca %"class.llvm::MCRegister", align 4
  %7 = alloca %"class.llvm::MCRegister", align 4
  %8 = alloca %"class.llvm::MCRegister", align 4
  %9 = getelementptr inbounds nuw %"class.llvm::MCRegister", ptr %4, i32 0, i32 0
  store i32 %1, ptr %9, align 4
  store ptr %0, ptr %5, align 8
  %10 = load ptr, ptr %5, align 8
  %11 = getelementptr inbounds nuw %"class.llvm::RegAllocEvictionAdvisor", ptr %10, i32 0, i32 8
  %12 = load ptr, ptr %11, align 8
  call void @llvm.memcpy.p0.p0.i64(ptr align 4 %7, ptr align 4 %4, i64 4, i1 false)
  %13 = getelementptr inbounds nuw %"class.llvm::MCRegister", ptr %7, i32 0, i32 0
  %14 = load i32, ptr %13, align 4
  %15 = call i32 @_ZNK4llvm17RegisterClassInfo23getLastCalleeSavedAliasENS_10MCRegisterE(ptr noundef nonnull align 8 dereferenceable(320) %12, i32 %14)
  %16 = getelementptr inbounds nuw %"class.llvm::MCRegister", ptr %6, i32 0, i32 0
  store i32 %15, ptr %16, align 4
  %17 = call noundef i32 @_ZNK4llvm10MCRegistercvjEv(ptr noundef nonnull align 4 dereferenceable(4) %6)
  %18 = icmp ne i32 %17, 0
  br i1 %18, label %20, label %19

19:                                               ; preds = %2
  store i1 false, ptr %3, align 1
  br label %27

20:                                               ; preds = %2
  %21 = getelementptr inbounds nuw %"class.llvm::RegAllocEvictionAdvisor", ptr %10, i32 0, i32 3
  %22 = load ptr, ptr %21, align 8
  call void @llvm.memcpy.p0.p0.i64(ptr align 4 %8, ptr align 4 %4, i64 4, i1 false)
  %23 = getelementptr inbounds nuw %"class.llvm::MCRegister", ptr %8, i32 0, i32 0
  %24 = load i32, ptr %23, align 4
  %25 = call noundef zeroext i1 @_ZNK4llvm13LiveRegMatrix13isPhysRegUsedENS_10MCRegisterE(ptr noundef nonnull align 8 dereferenceable(296) %22, i32 %24)
  %26 = xor i1 %25, true
  store i1 %26, ptr %3, align 1
  br label %27

27:                                               ; preds = %20, %19
  %28 = load i1, ptr %3, align 1
  ret i1 %28
}