; Function Attrs: mustprogress nounwind uwtable
define dso_local noundef zeroext i1 @_ZNK4llvm23RegAllocEvictionAdvisor22isUnusedCalleeSavedRegENS_10MCRegisterE(ptr nocapture noundef nonnull readonly align 8 dereferenceable(89) %0, i32 %1) local_unnamed_addr #0 align 2 {
  %3 = getelementptr inbounds nuw i8, ptr %0, i64 64
  %4 = load ptr, ptr %3, align 8
  %5 = getelementptr inbounds nuw i8, ptr %4, i64 24
  %6 = load ptr, ptr %5, align 8
  %7 = icmp eq ptr %6, null
  %8 = getelementptr inbounds i8, ptr %6, i64 8
  %spec.select.i = select i1 %7, ptr null, ptr %8
  %9 = getelementptr inbounds nuw i8, ptr %spec.select.i, i64 48
  %10 = load ptr, ptr %9, align 8
  %.not710.i = icmp eq ptr %10, null
  br i1 %.not710.i, label %_ZNK4llvm17RegisterClassInfo23getLastCalleeSavedAliasENS_10MCRegisterE.exit.thread, label %.lr.ph.i

.lr.ph.i:                                         ; preds = %2
  %11 = load ptr, ptr %spec.select.i, align 8
  %12 = zext i32 %1 to i64
  %13 = getelementptr inbounds %"struct.llvm::MCRegisterDesc", ptr %11, i64 %12, i32 4
  %14 = load i32, ptr %13, align 4
  %15 = lshr i32 %14, 12
  %16 = zext nneg i32 %15 to i64
  %17 = getelementptr inbounds i16, ptr %10, i64 %16
  %18 = getelementptr inbounds nuw i8, ptr %4, i64 88
  %19 = and i32 %14, 4095
  %20 = load ptr, ptr %18, align 8
  br label %21

21:                                               ; preds = %_ZN4llvm17MCRegUnitIteratorppEv.exit.i, %.lr.ph.i
  %.sroa.4.012.i = phi ptr [ %17, %.lr.ph.i ], [ %25, %_ZN4llvm17MCRegUnitIteratorppEv.exit.i ]
  %.sroa.10.011.i = phi i32 [ %19, %.lr.ph.i ], [ %28, %_ZN4llvm17MCRegUnitIteratorppEv.exit.i ]
  %22 = zext i32 %.sroa.10.011.i to i64
  %23 = getelementptr inbounds i16, ptr %20, i64 %22
  %24 = load i16, ptr %23, align 2
  %.not.i = icmp eq i16 %24, 0
  br i1 %.not.i, label %_ZN4llvm17MCRegUnitIteratorppEv.exit.i, label %_ZNK4llvm17RegisterClassInfo23getLastCalleeSavedAliasENS_10MCRegisterE.exit

_ZN4llvm17MCRegUnitIteratorppEv.exit.i:           ; preds = %21
  %25 = getelementptr inbounds i8, ptr %.sroa.4.012.i, i64 2
  %26 = load i16, ptr %.sroa.4.012.i, align 2
  %27 = sext i16 %26 to i32
  %28 = add i32 %.sroa.10.011.i, %27
  %.not.i.i.i = icmp eq i16 %26, 0
  br i1 %.not.i.i.i, label %_ZNK4llvm17RegisterClassInfo23getLastCalleeSavedAliasENS_10MCRegisterE.exit.thread, label %21, !llvm.loop !51

_ZNK4llvm17RegisterClassInfo23getLastCalleeSavedAliasENS_10MCRegisterE.exit: ; preds = %21
  %29 = getelementptr inbounds nuw i8, ptr %0, i64 24
  %30 = load ptr, ptr %29, align 8
  %31 = tail call noundef zeroext i1 @_ZNK4llvm13LiveRegMatrix13isPhysRegUsedENS_10MCRegisterE(ptr noundef nonnull align 8 dereferenceable(296) %30, i32 %1) #19
  %32 = xor i1 %31, true
  br label %_ZNK4llvm17RegisterClassInfo23getLastCalleeSavedAliasENS_10MCRegisterE.exit.thread

_ZNK4llvm17RegisterClassInfo23getLastCalleeSavedAliasENS_10MCRegisterE.exit.thread: ; preds = %_ZN4llvm17MCRegUnitIteratorppEv.exit.i, %2, %_ZNK4llvm17RegisterClassInfo23getLastCalleeSavedAliasENS_10MCRegisterE.exit
  %.0 = phi i1 [ %32, %_ZNK4llvm17RegisterClassInfo23getLastCalleeSavedAliasENS_10MCRegisterE.exit ], [ false, %2 ], [ false, %_ZN4llvm17MCRegUnitIteratorppEv.exit.i ]
  ret i1 %.0
}